(dp0
S'San Jose Sharks'
p1
(dp2
S'streak'
p3
I1
sS'playoffs'
p4
I0
sS'reg'
p5
(lp6
I2
aI0
aI0
aI0
aI2
aI2
aI2
aI2
aI2
aI0
aI2
aI1
aI2
aI2
aI0
aI2
aI2
aI2
aI2
aI0
aI0
aI2
aI0
aI0
aI2
aI0
aI1
aI1
aI2
aI2
aI2
aI2
aI0
aI1
aI2
aI2
aI2
aI2
aI1
aI2
aI2
aI0
aI2
aI0
aI0
aI1
aI2
aI2
aI2
aI0
aI0
aI2
aI0
aI2
aI1
aI0
aI0
aI0
aI2
aI0
aI0
aI2
aI0
aI0
aI1
aI1
aI0
aI2
aI1
aI2
aI2
aI0
aI0
aI2
aI2
aI2
aI0
aI0
aI2
aI2
aI2
aI2
assS'Detroit Red Wings'
p7
(dp8
g3
I5
sg4
I0
sg5
(lp9
I2
aI2
aI2
aI2
aI2
aI0
aI0
aI0
aI0
aI1
aI0
aI2
aI2
aI2
aI2
aI0
aI0
aI2
aI2
aI2
aI2
aI2
aI2
aI2
aI0
aI0
aI2
aI2
aI2
aI0
aI2
aI2
aI0
aI0
aI2
aI2
aI0
aI2
aI2
aI0
aI2
aI0
aI2
aI2
aI2
aI2
aI2
aI2
aI2
aI0
aI2
aI2
aI1
aI0
aI2
aI2
aI2
aI2
aI2
aI2
aI0
aI1
aI0
aI2
aI2
aI0
aI0
aI2
aI0
aI0
aI0
aI1
aI0
aI1
aI2
aI2
aI0
aI0
aI2
aI2
aI0
aI1
assS'Carolina Hurricanes'
p10
(dp11
g3
I0
sg4
I0
sg5
(lp12
I0
aI1
aI0
aI2
aI2
aI2
aI1
aI0
aI1
aI2
aI0
aI2
aI0
aI0
aI0
aI0
aI2
aI0
aI0
aI0
aI2
aI2
aI1
aI0
aI0
aI0
aI0
aI0
aI0
aI2
aI0
aI1
aI2
aI1
aI0
aI2
aI2
aI0
aI2
aI0
aI1
aI2
aI0
aI0
aI2
aI2
aI0
aI1
aI2
aI1
aI2
aI0
aI2
aI2
aI1
aI1
aI2
aI2
aI0
aI2
aI1
aI1
aI2
aI0
aI1
aI2
aI1
aI2
aI0
aI0
aI2
aI2
aI2
aI2
aI0
aI0
aI2
aI1
aI0
aI2
aI2
aI0
assS'Boston Bruins'
p13
(dp14
g3
I0
sg4
I0
sg5
(lp15
I0
aI2
aI0
aI0
aI2
aI0
aI2
aI0
aI0
aI0
aI2
aI2
aI2
aI2
aI2
aI2
aI2
aI2
aI2
aI2
aI1
aI2
aI2
aI2
aI2
aI0
aI0
aI2
aI2
aI2
aI2
aI2
aI2
aI2
aI0
aI2
aI2
aI0
aI2
aI2
aI0
aI2
aI0
aI2
aI1
aI2
aI0
aI2
aI0
aI0
aI2
aI0
aI2
aI0
aI2
aI0
aI0
aI2
aI1
aI2
aI0
aI2
aI0
aI0
aI2
aI2
aI0
aI0
aI0
aI0
aI2
aI2
aI0
aI2
aI2
aI2
aI1
aI2
aI2
aI0
aI2
aI2
assS'Columbus Blue Jackets'
p16
(dp17
g3
I0
sg4
I0
sg5
(lp18
I0
aI0
aI0
aI1
aI0
aI0
aI0
aI0
aI2
aI0
aI0
aI2
aI0
aI0
aI0
aI2
aI0
aI1
aI2
aI2
aI1
aI2
aI0
aI0
aI2
aI0
aI2
aI1
aI0
aI2
aI0
aI0
aI0
aI0
aI0
aI1
aI2
aI0
aI0
aI2
aI0
aI0
aI2
aI0
aI2
aI0
aI1
aI0
aI0
aI0
aI0
aI2
aI2
aI0
aI2
aI0
aI2
aI0
aI1
aI2
aI0
aI0
aI0
aI2
aI2
aI2
aI2
aI0
aI0
aI0
aI0
aI2
aI0
aI2
aI0
aI0
aI2
aI2
aI2
aI0
aI2
aI2
assS'Florida Panthers'
p19
(dp20
g3
I1
sg4
I0
sg5
(lp21
I2
aI0
aI2
aI2
aI0
aI0
aI2
aI2
aI0
aI2
aI1
aI1
aI1
aI2
aI2
aI0
aI2
aI0
aI2
aI2
aI2
aI1
aI0
aI2
aI0
aI2
aI2
aI2
aI1
aI0
aI1
aI2
aI2
aI0
aI1
aI0
aI2
aI0
aI2
aI1
aI0
aI2
aI0
aI1
aI1
aI0
aI2
aI1
aI2
aI2
aI0
aI0
aI2
aI2
aI2
aI0
aI0
aI0
aI1
aI2
aI2
aI2
aI0
aI0
aI2
aI0
aI1
aI2
aI2
aI2
aI2
aI2
aI0
aI1
aI1
aI2
aI1
aI0
aI1
aI1
aI0
aI2
assS'Anaheim Ducks'
p22
(dp23
g3
I0
sg4
I0
sg5
(lp24
I0
aI2
aI2
aI2
aI2
aI0
aI0
aI1
aI2
aI0
aI0
aI1
aI1
aI0
aI0
aI2
aI0
aI1
aI0
aI0
aI0
aI0
aI0
aI2
aI1
aI0
aI2
aI0
aI0
aI2
aI0
aI0
aI0
aI1
aI2
aI0
aI0
aI0
aI2
aI2
aI2
aI1
aI2
aI2
aI2
aI2
aI2
aI0
aI2
aI0
aI1
aI2
aI2
aI1
aI2
aI2
aI2
aI1
aI2
aI0
aI2
aI2
aI0
aI0
aI2
aI0
aI2
aI0
aI0
aI1
aI2
aI0
aI0
aI2
aI2
aI0
aI2
aI0
aI0
aI1
aI2
aI0
assS'Buffalo Sabres'
p25
(dp26
g3
I2
sg4
I0
sg5
(lp27
I2
aI2
aI0
aI2
aI2
aI2
aI0
aI0
aI2
aI0
aI0
aI2
aI2
aI2
aI2
aI0
aI2
aI0
aI2
aI0
aI1
aI0
aI2
aI0
aI0
aI2
aI1
aI2
aI0
aI1
aI2
aI0
aI0
aI0
aI2
aI0
aI0
aI1
aI2
aI0
aI1
aI0
aI2
aI0
aI0
aI0
aI0
aI0
aI2
aI2
aI1
aI2
aI2
aI2
aI0
aI0
aI0
aI1
aI2
aI2
aI2
aI1
aI2
aI2
aI2
aI0
aI2
aI0
aI2
aI2
aI1
aI1
aI2
aI2
aI2
aI2
aI2
aI0
aI0
aI2
aI0
aI1
assS'Montreal Canadiens'
p28
(dp29
g3
I0
sg4
I0
sg5
(lp30
I0
aI2
aI0
aI1
aI0
aI0
aI1
aI0
aI2
aI2
aI2
aI2
aI0
aI0
aI2
aI2
aI1
aI2
aI0
aI2
aI0
aI2
aI0
aI1
aI0
aI1
aI2
aI1
aI1
aI2
aI2
aI0
aI0
aI0
aI0
aI0
aI2
aI0
aI0
aI2
aI2
aI0
aI0
aI1
aI2
aI0
aI1
aI2
aI2
aI0
aI0
aI0
aI2
aI2
aI2
aI2
aI0
aI1
aI2
aI0
aI0
aI0
aI0
aI0
aI2
aI0
aI0
aI2
aI2
aI1
aI2
aI1
aI1
aI0
aI2
aI0
aI1
aI0
aI1
aI2
aI1
aI2
assS'Edmonton Oilers'
p31
(dp32
g3
I2
sg4
I0
sg5
(lp33
I2
aI1
aI0
aI2
aI0
aI1
aI2
aI2
aI2
aI2
aI2
aI2
aI0
aI2
aI0
aI0
aI0
aI0
aI2
aI0
aI2
aI2
aI0
aI0
aI1
aI2
aI0
aI0
aI2
aI0
aI0
aI0
aI0
aI2
aI0
aI0
aI0
aI2
aI0
aI0
aI0
aI1
aI0
aI2
aI0
aI0
aI0
aI2
aI1
aI2
aI2
aI2
aI0
aI0
aI2
aI1
aI0
aI0
aI2
aI2
aI0
aI2
aI0
aI0
aI0
aI2
aI0
aI1
aI0
aI2
aI2
aI1
aI2
aI1
aI2
aI2
aI0
aI0
aI2
aI0
aI1
aI0
assS'Pittsburgh Penguins'
p34
(dp35
g3
I5
sg4
I0
sg5
(lp36
I2
aI2
aI1
aI2
aI1
aI0
aI0
aI2
aI2
aI2
aI2
aI2
aI0
aI1
aI2
aI2
aI0
aI2
aI0
aI0
aI2
aI1
aI2
aI2
aI0
aI2
aI2
aI0
aI0
aI2
aI0
aI0
aI2
aI2
aI2
aI2
aI0
aI0
aI0
aI0
aI0
aI0
aI2
aI2
aI2
aI2
aI2
aI2
aI2
aI2
aI0
aI2
aI0
aI1
aI2
aI2
aI0
aI2
aI0
aI2
aI2
aI2
aI2
aI2
aI2
aI2
aI2
aI2
aI2
aI2
aI1
aI2
aI2
aI0
aI2
aI0
aI0
aI2
aI0
aI2
aI2
aI2
assS'Phoenix Coyotes'
p37
(dp38
g3
I0
sg4
I0
sg5
(lp39
I0
aI1
aI2
aI2
aI0
aI0
aI2
aI1
aI2
aI2
aI2
aI0
aI2
aI1
aI2
aI2
aI0
aI2
aI0
aI2
aI0
aI2
aI2
aI0
aI0
aI2
aI2
aI0
aI0
aI0
aI2
aI0
aI2
aI2
aI0
aI0
aI1
aI0
aI2
aI0
aI1
aI2
aI1
aI1
aI0
aI2
aI0
aI1
aI0
aI2
aI0
aI2
aI2
aI2
aI2
aI2
aI1
aI2
aI2
aI2
aI2
aI2
aI2
aI0
aI0
aI0
aI0
aI1
aI2
aI1
aI2
aI0
aI2
aI1
aI2
aI1
aI0
aI2
aI2
aI2
aI2
aI2
assS'New York Rangers'
p40
(dp41
g3
I2
sg4
I0
sg5
(lp42
I1
aI1
aI0
aI2
aI2
aI0
aI2
aI0
aI1
aI2
aI2
aI2
aI2
aI2
aI2
aI2
aI0
aI0
aI2
aI2
aI2
aI2
aI2
aI0
aI1
aI2
aI2
aI0
aI0
aI2
aI2
aI2
aI2
aI2
aI0
aI2
aI2
aI2
aI2
aI2
aI0
aI2
aI0
aI2
aI0
aI2
aI2
aI1
aI2
aI2
aI0
aI2
aI2
aI2
aI2
aI0
aI2
aI0
aI1
aI2
aI2
aI2
aI1
aI2
aI0
aI0
aI0
aI2
aI2
aI0
aI0
aI2
aI2
aI0
aI2
aI2
aI2
aI2
aI0
aI2
aI0
aI0
assS'Washington Capitals'
p43
(dp44
g3
I7
sg4
I0
sg5
(lp45
I2
aI2
aI2
aI2
aI2
aI2
aI2
aI0
aI0
aI2
aI2
aI0
aI0
aI2
aI1
aI0
aI0
aI0
aI2
aI2
aI0
aI0
aI0
aI0
aI2
aI0
aI2
aI2
aI0
aI2
aI0
aI2
aI1
aI0
aI2
aI2
aI2
aI2
aI0
aI0
aI2
aI2
aI2
aI0
aI2
aI0
aI1
aI2
aI1
aI0
aI2
aI0
aI2
aI1
aI0
aI0
aI2
aI0
aI0
aI0
aI2
aI2
aI2
aI0
aI0
aI1
aI2
aI2
aI2
aI2
aI0
aI0
aI2
aI1
aI1
aI2
aI0
aI2
aI2
aI0
aI2
aI2
assS'Toronto Maple Leafs'
p46
(dp47
g3
I5
sg4
I0
sg5
(lp48
I2
aI2
aI2
aI1
aI2
aI0
aI2
aI0
aI2
aI2
aI0
aI2
aI2
aI0
aI0
aI2
aI0
aI1
aI0
aI2
aI0
aI2
aI2
aI2
aI0
aI0
aI2
aI1
aI0
aI2
aI0
aI0
aI1
aI2
aI2
aI0
aI1
aI0
aI2
aI2
aI2
aI2
aI0
aI0
aI0
aI2
aI0
aI2
aI2
aI1
aI2
aI2
aI2
aI0
aI0
aI0
aI0
aI2
aI0
aI1
aI0
aI0
aI0
aI0
aI2
aI0
aI0
aI1
aI0
aI0
aI2
aI2
aI0
aI0
aI2
aI1
aI0
aI0
aI2
aI1
aI2
aI0
assS'Minnesota Wild'
p49
(dp50
g3
I1
sg4
I0
sg5
(lp51
I2
aI0
aI1
aI2
aI1
aI0
aI2
aI1
aI0
aI2
aI2
aI2
aI2
aI2
aI0
aI0
aI2
aI2
aI2
aI2
aI2
aI0
aI0
aI2
aI2
aI2
aI2
aI2
aI2
aI2
aI0
aI1
aI1
aI0
aI0
aI0
aI0
aI1
aI2
aI0
aI0
aI0
aI2
aI0
aI1
aI0
aI0
aI2
aI2
aI0
aI2
aI1
aI0
aI0
aI0
aI0
aI1
aI0
aI2
aI2
aI0
aI2
aI0
aI1
aI0
aI0
aI0
aI2
aI0
aI0
aI0
aI2
aI2
aI0
aI0
aI0
aI2
aI2
aI2
aI1
aI2
aI0
assS'Dallas Stars'
p52
(dp53
g3
I1
sg4
I0
sg5
(lp54
I2
aI0
aI2
aI2
aI2
aI2
aI2
aI0
aI2
aI0
aI2
aI2
aI2
aI2
aI0
aI0
aI0
aI0
aI0
aI2
aI2
aI1
aI0
aI2
aI2
aI0
aI0
aI2
aI2
aI2
aI0
aI2
aI0
aI2
aI0
aI0
aI2
aI0
aI2
aI2
aI0
aI2
aI0
aI0
aI1
aI0
aI0
aI2
aI2
aI0
aI2
aI0
aI2
aI1
aI0
aI0
aI2
aI1
aI0
aI2
aI2
aI2
aI2
aI1
aI2
aI2
aI2
aI2
aI2
aI2
aI0
aI0
aI2
aI0
aI2
aI0
aI2
aI0
aI0
aI0
aI0
aI0
assS'Winnipeg Jets'
p55
(dp56
g3
I0
sg4
I0
sg5
(lp57
I0
aI0
aI0
aI2
aI1
aI0
aI2
aI0
aI2
aI0
aI2
aI2
aI1
aI0
aI1
aI0
aI0
aI2
aI2
aI2
aI1
aI2
aI0
aI0
aI2
aI2
aI2
aI2
aI0
aI2
aI0
aI2
aI1
aI2
aI0
aI2
aI2
aI2
aI0
aI0
aI2
aI0
aI0
aI0
aI2
aI0
aI2
aI1
aI0
aI0
aI2
aI2
aI0
aI0
aI2
aI2
aI0
aI0
aI2
aI2
aI2
aI1
aI2
aI1
aI0
aI2
aI2
aI0
aI0
aI2
aI2
aI0
aI0
aI2
aI0
aI0
aI0
aI2
aI1
aI2
aI0
aI1
assS'New Jersey Devils'
p58
(dp59
g3
I0
sg4
I0
sg5
(lp60
I0
aI2
aI2
aI2
aI1
aI0
aI2
aI0
aI0
aI0
aI2
aI2
aI2
aI0
aI2
aI0
aI2
aI2
aI0
aI2
aI2
aI0
aI0
aI0
aI0
aI2
aI2
aI0
aI2
aI2
aI2
aI2
aI0
aI2
aI0
aI2
aI2
aI1
aI0
aI2
aI2
aI0
aI2
aI2
aI2
aI0
aI0
aI1
aI2
aI2
aI2
aI2
aI2
aI1
aI0
aI2
aI2
aI2
aI2
aI0
aI0
aI0
aI1
aI2
aI0
aI2
aI2
aI2
aI2
aI0
aI2
aI0
aI0
aI2
aI1
aI0
aI2
aI2
aI2
aI2
aI2
aI2
assS'St. Louis Blues'
p61
(dp62
g3
I0
sg4
I0
sg5
(lp63
I0
aI2
aI0
aI2
aI0
aI0
aI2
aI2
aI2
aI0
aI0
aI2
aI0
aI2
aI1
aI2
aI2
aI2
aI1
aI0
aI2
aI2
aI2
aI2
aI1
aI0
aI2
aI2
aI2
aI2
aI1
aI2
aI0
aI2
aI2
aI0
aI1
aI0
aI2
aI2
aI2
aI2
aI1
aI2
aI2
aI2
aI2
aI0
aI1
aI2
aI0
aI2
aI2
aI2
aI2
aI0
aI2
aI2
aI0
aI0
aI2
aI2
aI2
aI2
aI0
aI2
aI2
aI2
aI2
aI2
aI1
aI0
aI2
aI0
aI1
aI2
aI2
aI1
aI0
aI1
aI0
aI2
assS'Tampa Bay Lightning'
p64
(dp65
g3
I1
sg4
I0
sg5
(lp66
I2
aI0
aI1
aI0
aI1
aI0
aI2
aI2
aI2
aI0
aI2
aI0
aI2
aI2
aI2
aI0
aI0
aI2
aI0
aI0
aI2
aI2
aI0
aI0
aI0
aI0
aI0
aI2
aI0
aI0
aI2
aI2
aI0
aI1
aI2
aI2
aI2
aI0
aI0
aI0
aI1
aI0
aI0
aI0
aI2
aI2
aI2
aI2
aI2
aI1
aI2
aI0
aI1
aI2
aI0
aI0
aI2
aI2
aI2
aI0
aI0
aI2
aI2
aI2
aI2
aI0
aI1
aI0
aI2
aI0
aI0
aI0
aI2
aI2
aI2
aI0
aI0
aI2
aI2
aI0
aI1
aI2
assS'Los Angeles Kings'
p67
(dp68
g3
I1
sg4
I0
sg5
(lp69
I2
aI0
aI1
aI2
aI2
aI2
aI2
aI0
aI2
aI1
aI0
aI0
aI1
aI0
aI2
aI0
aI2
aI2
aI2
aI0
aI2
aI1
aI0
aI2
aI2
aI0
aI0
aI0
aI0
aI0
aI2
aI0
aI2
aI2
aI1
aI2
aI2
aI1
aI2
aI1
aI2
aI0
aI2
aI1
aI2
aI1
aI2
aI1
aI0
aI2
aI2
aI0
aI0
aI2
aI0
aI1
aI2
aI0
aI0
aI1
aI0
aI2
aI0
aI2
aI2
aI2
aI0
aI0
aI2
aI2
aI2
aI2
aI2
aI2
aI0
aI0
aI2
aI2
aI1
aI2
aI1
aI1
assS'Calgary Flames'
p70
(dp71
g3
I0
sg4
I0
sg5
(lp72
I0
aI0
aI2
aI0
aI2
aI1
aI0
aI2
aI2
aI0
aI2
aI0
aI2
aI0
aI0
aI2
aI0
aI2
aI0
aI0
aI0
aI2
aI2
aI1
aI2
aI0
aI2
aI2
aI2
aI0
aI1
aI1
aI0
aI2
aI2
aI2
aI2
aI0
aI1
aI0
aI0
aI0
aI2
aI2
aI2
aI0
aI1
aI2
aI2
aI0
aI0
aI2
aI1
aI2
aI1
aI2
aI2
aI1
aI2
aI0
aI1
aI1
aI0
aI2
aI0
aI1
aI2
aI2
aI2
aI2
aI2
aI0
aI1
aI1
aI1
aI0
aI2
aI0
aI0
aI1
aI2
aI2
assS'Chicago Blackhawks'
p73
(dp74
g3
I0
sg4
I0
sg5
(lp75
I0
aI2
aI2
aI1
aI2
aI2
aI1
aI2
aI0
aI2
aI2
aI2
aI1
aI0
aI0
aI2
aI2
aI2
aI2
aI0
aI0
aI0
aI2
aI2
aI0
aI2
aI2
aI1
aI2
aI2
aI2
aI2
aI2
aI0
aI2
aI2
aI0
aI2
aI0
aI0
aI0
aI1
aI2
aI2
aI1
aI2
aI2
aI2
aI0
aI0
aI1
aI0
aI0
aI0
aI0
aI0
aI0
aI2
aI2
aI2
aI2
aI0
aI0
aI0
aI2
aI2
aI2
aI0
aI2
aI1
aI2
aI2
aI2
aI2
aI2
aI0
aI1
aI2
aI2
aI1
aI1
aI2
assS'Colorado Avalanche'
p76
(dp77
g3
I0
sg4
I0
sg5
(lp78
I0
aI2
aI2
aI2
aI2
aI2
aI0
aI2
aI0
aI0
aI2
aI0
aI1
aI0
aI0
aI2
aI0
aI0
aI0
aI2
aI0
aI0
aI2
aI0
aI2
aI2
aI2
aI0
aI0
aI0
aI2
aI0
aI2
aI2
aI2
aI2
aI2
aI0
aI2
aI2
aI2
aI2
aI0
aI0
aI1
aI2
aI0
aI2
aI2
aI0
aI0
aI0
aI0
aI1
aI2
aI2
aI1
aI0
aI2
aI0
aI2
aI2
aI2
aI2
aI0
aI0
aI2
aI2
aI0
aI2
aI2
aI2
aI1
aI2
aI2
aI0
aI1
aI0
aI0
aI2
aI0
aI0
assS'Nashville Predators'
p79
(dp80
g3
I2
sg4
I0
sg5
(lp81
I2
aI2
aI0
aI1
aI0
aI0
aI2
aI0
aI2
aI2
aI1
aI2
aI2
aI0
aI2
aI1
aI2
aI2
aI1
aI0
aI0
aI0
aI2
aI0
aI2
aI0
aI0
aI2
aI2
aI2
aI2
aI2
aI0
aI2
aI0
aI0
aI2
aI2
aI2
aI0
aI2
aI2
aI2
aI2
aI2
aI0
aI2
aI2
aI2
aI2
aI2
aI0
aI2
aI1
aI0
aI1
aI2
aI0
aI2
aI2
aI1
aI2
aI2
aI0
aI2
aI0
aI2
aI2
aI2
aI1
aI0
aI2
aI0
aI0
aI2
aI2
aI0
aI2
aI0
aI2
aI2
aI2
assS'Ottawa Senators'
p82
(dp83
g3
I0
sg4
I0
sg5
(lp84
I0
aI0
aI2
aI0
aI0
aI0
aI2
aI2
aI2
aI2
aI2
aI2
aI0
aI0
aI1
aI0
aI0
aI2
aI2
aI2
aI1
aI0
aI2
aI2
aI0
aI1
aI2
aI0
aI1
aI0
aI2
aI0
aI2
aI2
aI2
aI1
aI0
aI2
aI2
aI2
aI2
aI1
aI2
aI2
aI2
aI2
aI0
aI2
aI2
aI0
aI0
aI0
aI0
aI1
aI0
aI0
aI2
aI1
aI2
aI2
aI2
aI2
aI0
aI2
aI2
aI0
aI0
aI2
aI2
aI1
aI1
aI2
aI0
aI0
aI0
aI2
aI2
aI2
aI2
aI0
aI0
aI0
assS'New York Islanders'
p85
(dp86
g3
I0
sg4
I0
sg5
(lp87
I0
aI2
aI2
aI2
aI0
aI0
aI0
aI1
aI1
aI0
aI2
aI0
aI1
aI0
aI0
aI2
aI0
aI0
aI1
aI0
aI2
aI2
aI1
aI2
aI2
aI1
aI0
aI0
aI0
aI2
aI2
aI0
aI0
aI0
aI2
aI2
aI2
aI0
aI0
aI2
aI0
aI2
aI0
aI2
aI2
aI2
aI0
aI1
aI2
aI2
aI1
aI2
aI0
aI2
aI0
aI2
aI0
aI2
aI0
aI0
aI2
aI0
aI1
aI0
aI2
aI2
aI0
aI0
aI1
aI1
aI0
aI2
aI2
aI0
aI2
aI2
aI2
aI0
aI0
aI0
aI2
aI0
assS'Vancouver Canucks'
p88
(dp89
g3
I2
sg4
I0
sg5
(lp90
I1
aI2
aI0
aI0
aI2
aI0
aI2
aI2
aI0
aI0
aI2
aI2
aI0
aI0
aI2
aI2
aI0
aI2
aI0
aI2
aI2
aI2
aI2
aI2
aI0
aI2
aI2
aI2
aI2
aI1
aI0
aI2
aI2
aI2
aI0
aI2
aI2
aI2
aI0
aI1
aI2
aI2
aI0
aI2
aI2
aI0
aI1
aI2
aI2
aI2
aI1
aI2
aI2
aI2
aI1
aI2
aI2
aI2
aI2
aI0
aI2
aI2
aI1
aI1
aI2
aI0
aI0
aI2
aI0
aI0
aI2
aI0
aI1
aI2
aI2
aI2
aI2
aI2
aI2
aI2
aI0
aI2
assS'Philadelphia Flyers'
p91
(dp92
g3
I5
sg4
I0
sg5
(lp93
I2
aI2
aI2
aI1
aI2
aI0
aI0
aI2
aI0
aI0
aI2
aI2
aI1
aI2
aI1
aI2
aI2
aI2
aI0
aI0
aI2
aI2
aI0
aI2
aI2
aI2
aI2
aI2
aI2
aI2
aI0
aI1
aI2
aI0
aI0
aI2
aI0
aI2
aI2
aI0
aI2
aI2
aI0
aI2
aI0
aI2
aI1
aI2
aI1
aI2
aI0
aI0
aI1
aI2
aI0
aI0
aI2
aI0
aI2
aI0
aI2
aI0
aI2
aI2
aI2
aI2
aI2
aI0
aI2
aI2
aI1
aI2
aI0
aI2
aI2
aI0
aI2
aI1
aI2
aI0
aI2
aI0
ass.